target datalayout = "e-m:e-p270:32:32-p271:32:32-p272:64:64-i64:64-i128:128-f80:128-n8:16:32:64-S128"
target triple = "x86_64-pc-linux-gnu"

%struct.object_id = type { [32 x i8], i32 }

@.str = private unnamed_addr constant [1 x i8] zeroinitializer, align 1
@.str.1 = private unnamed_addr constant [31 x i8] c"cannot find path %s in tree %s\00", align 1

; Function Attrs: inlinehint nounwind uwtable
define internal void @oidcpy(ptr noundef %0, ptr noundef %1) #3 {
  %3 = alloca ptr, align 8
  %4 = alloca ptr, align 8
  store ptr %0, ptr %3, align 8, !tbaa !9
  store ptr %1, ptr %4, align 8, !tbaa !9
  %5 = load ptr, ptr %3, align 8, !tbaa !9
  %6 = getelementptr inbounds nuw %struct.object_id, ptr %5, i32 0, i32 0
  %7 = getelementptr inbounds [32 x i8], ptr %6, i64 0, i64 0
  %8 = load ptr, ptr %4, align 8, !tbaa !9
  %9 = getelementptr inbounds nuw %struct.object_id, ptr %8, i32 0, i32 0
  %10 = getelementptr inbounds [32 x i8], ptr %9, i64 0, i64 0
  call void @llvm.memcpy.p0.p0.i64(ptr align 4 %7, ptr align 4 %10, i64 32, i1 false)
  %11 = load ptr, ptr %4, align 8, !tbaa !9
  %12 = getelementptr inbounds nuw %struct.object_id, ptr %11, i32 0, i32 1
  %13 = load i32, ptr %12, align 4, !tbaa !31
  %14 = load ptr, ptr %3, align 8, !tbaa !9
  %15 = getelementptr inbounds nuw %struct.object_id, ptr %14, i32 0, i32 1
  store i32 %13, ptr %15, align 4, !tbaa !31
  ret void
}

; Function Attrs: nounwind uwtable
define dso_local void @shift_tree(ptr noundef %0, ptr noundef %1, ptr noundef %2, ptr noundef %3, i32 noundef %4) #0 {
  %6 = alloca ptr, align 8
  %7 = alloca ptr, align 8
  %8 = alloca ptr, align 8
  %9 = alloca ptr, align 8
  %10 = alloca i32, align 4
  %11 = alloca ptr, align 8
  %12 = alloca ptr, align 8
  %13 = alloca i32, align 4
  %14 = alloca i32, align 4
  %15 = alloca i16, align 2
  %16 = alloca i32, align 4
  store ptr %0, ptr %6, align 8, !tbaa !4
  store ptr %1, ptr %7, align 8, !tbaa !9
  store ptr %2, ptr %8, align 8, !tbaa !9
  store ptr %3, ptr %9, align 8, !tbaa !9
  store i32 %4, ptr %10, align 4, !tbaa !11
  call void @llvm.lifetime.start.p0(i64 8, ptr %11) #9
  call void @llvm.lifetime.start.p0(i64 8, ptr %12) #9
  call void @llvm.lifetime.start.p0(i64 4, ptr %13) #9
  call void @llvm.lifetime.start.p0(i64 4, ptr %14) #9
  %17 = load i32, ptr %10, align 4, !tbaa !11
  %18 = icmp ne i32 %17, 0
  br i1 %18, label %20, label %19

19:                                               ; preds = %5
  store i32 2, ptr %10, align 4, !tbaa !11
  br label %20

20:                                               ; preds = %19, %5
  %21 = load ptr, ptr %6, align 8, !tbaa !4
  %22 = load ptr, ptr %7, align 8, !tbaa !9
  %23 = load ptr, ptr %8, align 8, !tbaa !9
  %24 = call i32 @score_trees(ptr noundef %21, ptr noundef %22, ptr noundef %23)
  store i32 %24, ptr %14, align 4, !tbaa !11
  store i32 %24, ptr %13, align 4, !tbaa !11
  %25 = call ptr @xcalloc(i64 noundef 1, i64 noundef 1)
  store ptr %25, ptr %11, align 8, !tbaa !13
  %26 = call ptr @xcalloc(i64 noundef 1, i64 noundef 1)
  store ptr %26, ptr %12, align 8, !tbaa !13
  %27 = load ptr, ptr %6, align 8, !tbaa !4
  %28 = load ptr, ptr %7, align 8, !tbaa !9
  %29 = load ptr, ptr %8, align 8, !tbaa !9
  %30 = load i32, ptr %10, align 4, !tbaa !11
  call void @match_trees(ptr noundef %27, ptr noundef %28, ptr noundef %29, ptr noundef %13, ptr noundef %11, ptr noundef @.str, i32 noundef %30)
  %31 = load ptr, ptr %6, align 8, !tbaa !4
  %32 = load ptr, ptr %8, align 8, !tbaa !9
  %33 = load ptr, ptr %7, align 8, !tbaa !9
  %34 = load i32, ptr %10, align 4, !tbaa !11
  call void @match_trees(ptr noundef %31, ptr noundef %32, ptr noundef %33, ptr noundef %14, ptr noundef %12, ptr noundef @.str, i32 noundef %34)
  %35 = load ptr, ptr %9, align 8, !tbaa !9
  %36 = load ptr, ptr %8, align 8, !tbaa !9
  call void @oidcpy(ptr noundef %35, ptr noundef %36)
  %37 = load i32, ptr %13, align 4, !tbaa !11
  %38 = load i32, ptr %14, align 4, !tbaa !11
  %39 = icmp slt i32 %37, %38
  br i1 %39, label %40, label %58

40:                                               ; preds = %20
  call void @llvm.lifetime.start.p0(i64 2, ptr %15) #9
  %41 = load ptr, ptr %12, align 8, !tbaa !13
  %42 = load i8, ptr %41, align 1, !tbaa !15
  %43 = icmp ne i8 %42, 0
  br i1 %43, label %45, label %44

44:                                               ; preds = %40
  store i32 2, ptr %16, align 4
  br label %57

45:                                               ; preds = %40
  %46 = load ptr, ptr %6, align 8, !tbaa !4
  %47 = load ptr, ptr %8, align 8, !tbaa !9
  %48 = load ptr, ptr %12, align 8, !tbaa !13
  %49 = load ptr, ptr %9, align 8, !tbaa !9
  %50 = call i32 @get_tree_entry(ptr noundef %46, ptr noundef %47, ptr noundef %48, ptr noundef %49, ptr noundef %15)
  %51 = icmp ne i32 %50, 0
  br i1 %51, label %52, label %56

52:                                               ; preds = %45
  %53 = load ptr, ptr %12, align 8, !tbaa !13
  %54 = load ptr, ptr %8, align 8, !tbaa !9
  %55 = call ptr @oid_to_hex(ptr noundef %54)
  call void (ptr, ...) @die(ptr noundef @.str.1, ptr noundef %53, ptr noundef %55) #10
  unreachable

56:                                               ; preds = %45
  store i32 2, ptr %16, align 4
  br label %57

57:                                               ; preds = %56, %44
  call void @llvm.lifetime.end.p0(i64 2, ptr %15) #9
  br label %70

58:                                               ; preds = %20
  %59 = load ptr, ptr %11, align 8, !tbaa !13
  %60 = load i8, ptr %59, align 1, !tbaa !15
  %61 = icmp ne i8 %60, 0
  br i1 %61, label %63, label %62

62:                                               ; preds = %58
  br label %70

63:                                               ; preds = %58
  %64 = load ptr, ptr %6, align 8, !tbaa !4
  %65 = load ptr, ptr %7, align 8, !tbaa !9
  %66 = load ptr, ptr %11, align 8, !tbaa !13
  %67 = load ptr, ptr %8, align 8, !tbaa !9
  %68 = load ptr, ptr %9, align 8, !tbaa !9
  %69 = call i32 @splice_tree(ptr noundef %64, ptr noundef %65, ptr noundef %66, ptr noundef %67, ptr noundef %68)
  br label %70

70:                                               ; preds = %57, %63, %62
  %71 = load ptr, ptr %11, align 8, !tbaa !13
  call void @free(ptr noundef %71) #9
  %72 = load ptr, ptr %12, align 8, !tbaa !13
  call void @free(ptr noundef %72) #9
  call void @llvm.lifetime.end.p0(i64 4, ptr %14) #9
  call void @llvm.lifetime.end.p0(i64 4, ptr %13) #9
  call void @llvm.lifetime.end.p0(i64 8, ptr %12) #9
  call void @llvm.lifetime.end.p0(i64 8, ptr %11) #9
  ret void
}