; Function Attrs: nounwind uwtable
define dso_local void @shift_tree(ptr noundef %0, ptr noundef %1, ptr noundef %2, ptr noundef initializes((0, 36)) %3, i32 noundef %4) local_unnamed_addr #0 {
  %6 = alloca ptr, align 8
  %7 = alloca ptr, align 8
  %8 = alloca i32, align 4
  %9 = alloca i32, align 4
  %10 = alloca i16, align 2
  call void @llvm.lifetime.start.p0(i64 8, ptr nonnull %6) #11
  call void @llvm.lifetime.start.p0(i64 8, ptr nonnull %7) #11
  call void @llvm.lifetime.start.p0(i64 4, ptr nonnull %8) #11
  call void @llvm.lifetime.start.p0(i64 4, ptr nonnull %9) #11
  %.not = icmp eq i32 %4, 0
  %spec.store.select = select i1 %.not, i32 2, i32 %4
  %11 = tail call fastcc i32 @score_trees(ptr noundef %0, ptr noundef %1, ptr noundef %2)
  store i32 %11, ptr %9, align 4, !tbaa !4
  store i32 %11, ptr %8, align 4, !tbaa !4
  %12 = tail call ptr @xcalloc(i64 noundef 1, i64 noundef 1) #11
  store ptr %12, ptr %6, align 8, !tbaa !8
  %13 = tail call ptr @xcalloc(i64 noundef 1, i64 noundef 1) #11
  store ptr %13, ptr %7, align 8, !tbaa !8
  call fastcc void @match_trees(ptr noundef %0, ptr noundef %1, ptr noundef %2, ptr noundef %8, ptr noundef %6, ptr noundef nonnull @.str, i32 noundef %spec.store.select)
  call fastcc void @match_trees(ptr noundef %0, ptr noundef %2, ptr noundef %1, ptr noundef %9, ptr noundef %7, ptr noundef nonnull @.str, i32 noundef %spec.store.select)
  tail call void @llvm.memcpy.p0.p0.i64(ptr noundef nonnull align 4 dereferenceable(32) %3, ptr noundef nonnull readonly align 4 dereferenceable(32) %2, i64 32, i1 false)
  %14 = getelementptr inbounds nuw i8, ptr %2, i64 32
  %15 = load i32, ptr %14, align 4, !tbaa !11
  %16 = getelementptr inbounds nuw i8, ptr %3, i64 32
  store i32 %15, ptr %16, align 4, !tbaa !11
  %17 = load i32, ptr %8, align 4, !tbaa !4
  %18 = load i32, ptr %9, align 4, !tbaa !4
  %19 = icmp slt i32 %17, %18
  br i1 %19, label %20, label %28

20:                                               ; preds = %5
  call void @llvm.lifetime.start.p0(i64 2, ptr nonnull %10) #11
  %21 = load ptr, ptr %7, align 8, !tbaa !8
  %22 = load i8, ptr %21, align 1, !tbaa !13
  %.not22 = icmp eq i8 %22, 0
  br i1 %.not22, label %27, label %23

23:                                               ; preds = %20
  %24 = call i32 @get_tree_entry(ptr noundef %0, ptr noundef nonnull %2, ptr noundef nonnull %21, ptr noundef nonnull %3, ptr noundef nonnull %10) #11
  %.not23 = icmp eq i32 %24, 0
  br i1 %.not23, label %27, label %25

25:                                               ; preds = %23
  %26 = call ptr @oid_to_hex(ptr noundef nonnull %2) #11
  call void (ptr, ...) @die(ptr noundef nonnull @.str.1, ptr noundef nonnull %21, ptr noundef %26) #12
  unreachable

27:                                               ; preds = %23, %20
  call void @llvm.lifetime.end.p0(i64 2, ptr nonnull %10) #11
  %.pre = load ptr, ptr %6, align 8, !tbaa !8
  br label %33

28:                                               ; preds = %5
  %29 = load ptr, ptr %6, align 8, !tbaa !8
  %30 = load i8, ptr %29, align 1, !tbaa !13
  %.not21 = icmp eq i8 %30, 0
  br i1 %.not21, label %33, label %31

31:                                               ; preds = %28
  %32 = tail call fastcc i32 @splice_tree(ptr noundef %0, ptr noundef %1, ptr noundef nonnull %29, ptr noundef nonnull %2, ptr noundef nonnull %3)
  br label %33

33:                                               ; preds = %28, %31, %27
  %34 = phi ptr [ %29, %28 ], [ %29, %31 ], [ %.pre, %27 ]
  call void @free(ptr noundef %34) #11
  %35 = load ptr, ptr %7, align 8, !tbaa !8
  call void @free(ptr noundef %35) #11
  call void @llvm.lifetime.end.p0(i64 4, ptr nonnull %9) #11
  call void @llvm.lifetime.end.p0(i64 4, ptr nonnull %8) #11
  call void @llvm.lifetime.end.p0(i64 8, ptr nonnull %7) #11
  call void @llvm.lifetime.end.p0(i64 8, ptr nonnull %6) #11
  ret void
}